target datalayout = "e-m:e-p270:32:32-p271:32:32-p272:64:64-i64:64-i128:128-f80:128-n8:16:32:64-S128"
target triple = "x86_64-pc-linux-gnu"

%struct.stbi__zhuffman = type { [512 x i16], [16 x i16], [17 x i32], [16 x i16], [288 x i8], [288 x i16] }
%struct.stbi__zbuf = type { ptr, ptr, i32, i32, i32, ptr, ptr, ptr, i32, %struct.stbi__zhuffman, %struct.stbi__zhuffman }

; Function Attrs: nounwind uwtable
define i32 @stbi__do_zlib(ptr noundef %0, ptr noundef %1, i32 noundef %2, i32 noundef %3, i32 noundef %4) #0 {
  %6 = alloca ptr, align 8
  %7 = alloca ptr, align 8
  %8 = alloca i32, align 4
  %9 = alloca i32, align 4
  %10 = alloca i32, align 4
  store ptr %0, ptr %6, align 8, !tbaa !3
  store ptr %1, ptr %7, align 8, !tbaa !7
  store i32 %2, ptr %8, align 4, !tbaa !9
  store i32 %3, ptr %9, align 4, !tbaa !9
  store i32 %4, ptr %10, align 4, !tbaa !9
  %11 = load ptr, ptr %7, align 8, !tbaa !7
  %12 = load ptr, ptr %6, align 8, !tbaa !3
  %13 = getelementptr inbounds nuw %struct.stbi__zbuf, ptr %12, i32 0, i32 6
  store ptr %11, ptr %13, align 8, !tbaa !295
  %14 = load ptr, ptr %7, align 8, !tbaa !7
  %15 = load ptr, ptr %6, align 8, !tbaa !3
  %16 = getelementptr inbounds nuw %struct.stbi__zbuf, ptr %15, i32 0, i32 5
  store ptr %14, ptr %16, align 8, !tbaa !293
  %17 = load ptr, ptr %7, align 8, !tbaa !7
  %18 = load i32, ptr %8, align 4, !tbaa !9
  %19 = sext i32 %18 to i64
  %20 = getelementptr inbounds i8, ptr %17, i64 %19
  %21 = load ptr, ptr %6, align 8, !tbaa !3
  %22 = getelementptr inbounds nuw %struct.stbi__zbuf, ptr %21, i32 0, i32 7
  store ptr %20, ptr %22, align 8, !tbaa !296
  %23 = load i32, ptr %9, align 4, !tbaa !9
  %24 = load ptr, ptr %6, align 8, !tbaa !3
  %25 = getelementptr inbounds nuw %struct.stbi__zbuf, ptr %24, i32 0, i32 8
  store i32 %23, ptr %25, align 8, !tbaa !294
  %26 = load ptr, ptr %6, align 8, !tbaa !3
  %27 = load i32, ptr %10, align 4, !tbaa !9
  %28 = call i32 @stbi__parse_zlib(ptr noundef %26, i32 noundef %27)
  ret i32 %28
}

; Function Attrs: nounwind uwtable
define i32 @stbi_zlib_decode_noheader_buffer(ptr noundef %0, i32 noundef %1, ptr noundef %2, i32 noundef %3) #0 {
  %5 = alloca i32, align 4
  %6 = alloca ptr, align 8
  %7 = alloca i32, align 4
  %8 = alloca ptr, align 8
  %9 = alloca i32, align 4
  %10 = alloca %struct.stbi__zbuf, align 8
  %11 = alloca i32, align 4
  store ptr %0, ptr %6, align 8, !tbaa !7
  store i32 %1, ptr %7, align 4, !tbaa !9
  store ptr %2, ptr %8, align 8, !tbaa !7
  store i32 %3, ptr %9, align 4, !tbaa !9
  call void @llvm.lifetime.start.p0(i64 4104, ptr %10) #13
  %12 = load ptr, ptr %8, align 8, !tbaa !7
  %13 = getelementptr inbounds nuw %struct.stbi__zbuf, ptr %10, i32 0, i32 0
  store ptr %12, ptr %13, align 8, !tbaa !285
  %14 = load ptr, ptr %8, align 8, !tbaa !7
  %15 = load i32, ptr %9, align 4, !tbaa !9
  %16 = sext i32 %15 to i64
  %17 = getelementptr inbounds i8, ptr %14, i64 %16
  %18 = getelementptr inbounds nuw %struct.stbi__zbuf, ptr %10, i32 0, i32 1
  store ptr %17, ptr %18, align 8, !tbaa !288
  %19 = load ptr, ptr %6, align 8, !tbaa !7
  %20 = load i32, ptr %7, align 4, !tbaa !9
  %21 = call i32 @stbi__do_zlib(ptr noundef %10, ptr noundef %19, i32 noundef %20, i32 noundef 0, i32 noundef 0)
  %22 = icmp ne i32 %21, 0
  br i1 %22, label %23, label %32

23:                                               ; preds = %4
  %24 = getelementptr inbounds nuw %struct.stbi__zbuf, ptr %10, i32 0, i32 5
  %25 = load ptr, ptr %24, align 8, !tbaa !293
  %26 = getelementptr inbounds nuw %struct.stbi__zbuf, ptr %10, i32 0, i32 6
  %27 = load ptr, ptr %26, align 8, !tbaa !295
  %28 = ptrtoint ptr %25 to i64
  %29 = ptrtoint ptr %27 to i64
  %30 = sub i64 %28, %29
  %31 = trunc i64 %30 to i32
  store i32 %31, ptr %5, align 4
  store i32 1, ptr %11, align 4
  br label %33

32:                                               ; preds = %4
  store i32 -1, ptr %5, align 4
  store i32 1, ptr %11, align 4
  br label %33

33:                                               ; preds = %32, %23
  call void @llvm.lifetime.end.p0(i64 4104, ptr %10) #13
  %34 = load i32, ptr %5, align 4
  ret i32 %34
}