; Function Attrs: nounwind uwtable
define i32 @stbi_zlib_decode_noheader_buffer(ptr noundef %0, i32 noundef %1, ptr noundef %2, i32 noundef %3) local_unnamed_addr #2 {
  %5 = alloca %struct.stbi__zbuf, align 8
  call void @llvm.lifetime.start.p0(i64 4104, ptr nonnull %5) #37
  store ptr %2, ptr %5, align 8, !tbaa !275
  %6 = sext i32 %3 to i64
  %7 = getelementptr inbounds i8, ptr %2, i64 %6
  %8 = getelementptr inbounds nuw i8, ptr %5, i64 8
  store ptr %7, ptr %8, align 8, !tbaa !278
  %9 = getelementptr inbounds nuw i8, ptr %5, i64 40
  store ptr %0, ptr %9, align 8, !tbaa !285
  %10 = getelementptr inbounds nuw i8, ptr %5, i64 32
  store ptr %0, ptr %10, align 8, !tbaa !283
  %11 = sext i32 %1 to i64
  %12 = getelementptr inbounds i8, ptr %0, i64 %11
  %13 = getelementptr inbounds nuw i8, ptr %5, i64 48
  store ptr %12, ptr %13, align 8, !tbaa !286
  %14 = getelementptr inbounds nuw i8, ptr %5, i64 56
  store i32 0, ptr %14, align 8, !tbaa !284
  %15 = call range(i32 0, 2) i32 @stbi__parse_zlib(ptr noundef nonnull %5, i32 noundef 0)
  %.not = icmp eq i32 %15, 0
  %16 = load ptr, ptr %10, align 8
  %17 = load ptr, ptr %9, align 8
  %18 = ptrtoint ptr %16 to i64
  %19 = ptrtoint ptr %17 to i64
  %20 = sub i64 %18, %19
  %21 = trunc i64 %20 to i32
  %.0 = select i1 %.not, i32 -1, i32 %21
  call void @llvm.lifetime.end.p0(i64 4104, ptr nonnull %5) #37
  ret i32 %.0
}